target datalayout = "e-m:e-p270:32:32-p271:32:32-p272:64:64-i64:64-i128:128-f80:128-n8:16:32:64-S128"
target triple = "x86_64-pc-linux-gnu"

%struct.XML_Memory_Handling_Suite = type { ptr, ptr, ptr }
%struct.XML_ParserStruct = type { ptr, ptr, ptr, %struct.XML_Memory_Handling_Suite, ptr, ptr, ptr, i64, ptr, i64, i8, i32, ptr, ptr, ptr, ptr, ptr, ptr, ptr, ptr, ptr, ptr, ptr, ptr, ptr, ptr, ptr, ptr, ptr, ptr, ptr, ptr, ptr, ptr, ptr, ptr, ptr, ptr, %struct.INIT_ENCODING, ptr, ptr, i8, i8, ptr, ptr, ptr, ptr, %struct.prolog_state, ptr, i32, ptr, ptr, ptr, ptr, ptr, i8, i32, ptr, ptr, ptr, ptr, ptr, ptr, ptr, ptr, ptr, i8, i8, ptr, ptr, ptr, ptr, ptr, ptr, i32, i32, i32, ptr, ptr, i64, i8, %struct.position, %struct.STRING_POOL, %struct.STRING_POOL, ptr, i32, i8, ptr, %struct.XML_ParsingStatus, i8, i8, i32, i64, %struct.accounting, %struct.entity_stats }
%struct.INIT_ENCODING = type { %struct.encoding, ptr }
%struct.encoding = type { [4 x ptr], [2 x ptr], ptr, ptr, ptr, ptr, ptr, ptr, ptr, ptr, ptr, ptr, i32, i8, i8 }
%struct.prolog_state = type { ptr, i32, i32, i32, i32, i32 }
%struct.position = type { i64, i64 }
%struct.STRING_POOL = type { ptr, ptr, ptr, ptr, ptr, ptr }
%struct.XML_ParsingStatus = type { i32, i8 }
%struct.accounting = type { i64, i64, i64, float, i64 }
%struct.entity_stats = type { i32, i32, i32, i64 }

; Function Attrs: nounwind uwtable
define internal i32 @cdataSectionProcessor(ptr noundef %0, ptr noundef %1, ptr noundef %2, ptr noundef %3) #0 {
  %5 = alloca i32, align 4
  %6 = alloca ptr, align 8
  %7 = alloca ptr, align 8
  %8 = alloca ptr, align 8
  %9 = alloca ptr, align 8
  %10 = alloca i32, align 4
  %11 = alloca i32, align 4
  store ptr %0, ptr %6, align 8, !tbaa !12
  store ptr %1, ptr %7, align 8, !tbaa !3
  store ptr %2, ptr %8, align 8, !tbaa !3
  store ptr %3, ptr %9, align 8, !tbaa !203
  call void @llvm.lifetime.start.p0(i64 4, ptr %10) #11
  %12 = load ptr, ptr %6, align 8, !tbaa !12
  %13 = load ptr, ptr %6, align 8, !tbaa !12
  %14 = getelementptr inbounds nuw %struct.XML_ParserStruct, ptr %13, i32 0, i32 37
  %15 = load ptr, ptr %14, align 8, !tbaa !213
  %16 = load ptr, ptr %8, align 8, !tbaa !3
  %17 = load ptr, ptr %9, align 8, !tbaa !203
  %18 = load ptr, ptr %6, align 8, !tbaa !12
  %19 = getelementptr inbounds nuw %struct.XML_ParserStruct, ptr %18, i32 0, i32 88
  %20 = getelementptr inbounds nuw %struct.XML_ParsingStatus, ptr %19, i32 0, i32 1
  %21 = load i8, ptr %20, align 4, !tbaa !212
  %22 = icmp ne i8 %21, 0
  %23 = xor i1 %22, true
  %24 = zext i1 %23 to i32
  %25 = trunc i32 %24 to i8
  %26 = call i32 @doCdataSection(ptr noundef %12, ptr noundef %15, ptr noundef %7, ptr noundef %16, ptr noundef %17, i8 noundef zeroext %25, i32 noundef 0)
  store i32 %26, ptr %10, align 4, !tbaa !174
  %27 = load i32, ptr %10, align 4, !tbaa !174
  %28 = icmp ne i32 %27, 0
  br i1 %28, label %29, label %31

29:                                               ; preds = %4
  %30 = load i32, ptr %10, align 4, !tbaa !174
  store i32 %30, ptr %5, align 4
  store i32 1, ptr %11, align 4
  br label %57

31:                                               ; preds = %4
  %32 = load ptr, ptr %7, align 8, !tbaa !3
  %33 = icmp ne ptr %32, null
  br i1 %33, label %34, label %55

34:                                               ; preds = %31
  %35 = load ptr, ptr %6, align 8, !tbaa !12
  %36 = getelementptr inbounds nuw %struct.XML_ParserStruct, ptr %35, i32 0, i32 87
  %37 = load ptr, ptr %36, align 8, !tbaa !60
  %38 = icmp ne ptr %37, null
  br i1 %38, label %39, label %47

39:                                               ; preds = %34
  %40 = load ptr, ptr %6, align 8, !tbaa !12
  %41 = getelementptr inbounds nuw %struct.XML_ParserStruct, ptr %40, i32 0, i32 48
  store ptr @externalEntityContentProcessor, ptr %41, align 8, !tbaa !92
  %42 = load ptr, ptr %6, align 8, !tbaa !12
  %43 = load ptr, ptr %7, align 8, !tbaa !3
  %44 = load ptr, ptr %8, align 8, !tbaa !3
  %45 = load ptr, ptr %9, align 8, !tbaa !203
  %46 = call i32 @externalEntityContentProcessor(ptr noundef %42, ptr noundef %43, ptr noundef %44, ptr noundef %45)
  store i32 %46, ptr %5, align 4
  store i32 1, ptr %11, align 4
  br label %57

47:                                               ; preds = %34
  %48 = load ptr, ptr %6, align 8, !tbaa !12
  %49 = getelementptr inbounds nuw %struct.XML_ParserStruct, ptr %48, i32 0, i32 48
  store ptr @contentProcessor, ptr %49, align 8, !tbaa !92
  %50 = load ptr, ptr %6, align 8, !tbaa !12
  %51 = load ptr, ptr %7, align 8, !tbaa !3
  %52 = load ptr, ptr %8, align 8, !tbaa !3
  %53 = load ptr, ptr %9, align 8, !tbaa !203
  %54 = call i32 @contentProcessor(ptr noundef %50, ptr noundef %51, ptr noundef %52, ptr noundef %53)
  store i32 %54, ptr %5, align 4
  store i32 1, ptr %11, align 4
  br label %57

55:                                               ; preds = %31
  %56 = load i32, ptr %10, align 4, !tbaa !174
  store i32 %56, ptr %5, align 4
  store i32 1, ptr %11, align 4
  br label %57

57:                                               ; preds = %55, %47, %39, %29
  call void @llvm.lifetime.end.p0(i64 4, ptr %10) #11
  %58 = load i32, ptr %5, align 4
  ret i32 %58
}